target datalayout = "e-m:e-p270:32:32-p271:32:32-p272:64:64-i64:64-i128:128-f80:128-n8:16:32:64-S128"
target triple = "x86_64-pc-linux-gnu"

%struct.archive_read = type { %struct.archive, ptr, i32, i64, i64, %struct.archive_read_client, [16 x %struct.archive_read_filter_bidder], ptr, i32, i64, i32, i32, [16 x %struct.archive_format_descriptor], ptr, ptr, ptr, %struct.anon }
%struct.archive = type { i32, i32, ptr, i32, ptr, i32, i32, ptr, %struct.archive_string, ptr, i32, i32, ptr, ptr, i64, i64, i64, i8, i64 }
%struct.archive_string = type { ptr, i64, i64 }
%struct.archive_read_client = type { ptr, ptr, ptr, ptr, ptr, ptr, i32, i32, i64, ptr }
%struct.archive_read_filter_bidder = type { ptr, ptr, ptr }
%struct.archive_format_descriptor = type { ptr, ptr, ptr, ptr, ptr, ptr, ptr, ptr, ptr, ptr, ptr }
%struct.anon = type { ptr, ptr, i32, ptr, ptr }
%struct.cab = type { i64, i64, i64, i64, i64, ptr, ptr, ptr, i64, %struct.cfheader, %struct.archive_wstring, i8, i8, i8, i8, i8, i64, ptr, i64, i32, ptr, ptr, ptr, [64 x i8], %struct.z_stream_s, i8, %struct.lzx_stream }
%struct.cfheader = type { i32, i32, i16, i16, i16, i16, i16, i8, i8, i8, i8, ptr, ptr, i32 }
%struct.archive_wstring = type { ptr, i64, i64 }
%struct.z_stream_s = type { ptr, i32, i64, ptr, i32, i64, ptr, ptr, ptr, ptr, ptr, i32, i64, i64 }
%struct.lzx_stream = type { ptr, i64, i64, ptr, i64, i64, ptr }
%struct.cffile = type { i32, i32, i64, i16, i8, %struct.archive_string }
%struct.cffolder = type { i32, i16, i16, i16, ptr, %struct.cfdata, i32, i8 }
%struct.cfdata = type { i32, i16, i16, i16, i16, i16, i16, i64, i64, ptr, i32, [4 x i8], i32, ptr }

@.str.22 = private unnamed_addr constant [47 x i8] c"Cannot restore this file split in multivolume.\00", align 1
@.str.24 = private unnamed_addr constant [15 x i8] c"Invalid CFDATA\00", align 1

; Function Attrs: nounwind uwtable
define internal i32 @cab_read_data(ptr noundef %0, ptr noundef %1, ptr noundef %2, ptr noundef %3) #0 {
  %5 = alloca i32, align 4
  %6 = alloca ptr, align 8
  %7 = alloca ptr, align 8
  %8 = alloca ptr, align 8
  %9 = alloca ptr, align 8
  %10 = alloca ptr, align 8
  %11 = alloca i64, align 8
  %12 = alloca i32, align 4
  store ptr %0, ptr %6, align 8, !tbaa !9
  store ptr %1, ptr %7, align 8, !tbaa !95
  store ptr %2, ptr %8, align 8, !tbaa !96
  store ptr %3, ptr %9, align 8, !tbaa !96
  call void @llvm.lifetime.start.p0(i64 8, ptr %10) #11
  %13 = load ptr, ptr %6, align 8, !tbaa !9
  %14 = getelementptr inbounds nuw %struct.archive_read, ptr %13, i32 0, i32 13
  %15 = load ptr, ptr %14, align 8, !tbaa !39
  %16 = getelementptr inbounds nuw %struct.archive_format_descriptor, ptr %15, i32 0, i32 0
  %17 = load ptr, ptr %16, align 8, !tbaa !53
  store ptr %17, ptr %10, align 8, !tbaa !13
  call void @llvm.lifetime.start.p0(i64 8, ptr %11) #11
  %18 = load ptr, ptr %10, align 8, !tbaa !13
  %19 = getelementptr inbounds nuw %struct.cab, ptr %18, i32 0, i32 1
  %20 = load i64, ptr %19, align 8, !tbaa !87
  %21 = icmp eq i64 %20, 0
  br i1 %21, label %22, label %31

22:                                               ; preds = %4
  %23 = load ptr, ptr %7, align 8, !tbaa !95
  store ptr null, ptr %23, align 8, !tbaa !95
  %24 = load ptr, ptr %8, align 8, !tbaa !96
  store i64 0, ptr %24, align 8, !tbaa !35
  %25 = load ptr, ptr %10, align 8, !tbaa !13
  %26 = getelementptr inbounds nuw %struct.cab, ptr %25, i32 0, i32 0
  %27 = load i64, ptr %26, align 8, !tbaa !88
  %28 = load ptr, ptr %9, align 8, !tbaa !96
  store i64 %27, ptr %28, align 8, !tbaa !35
  %29 = load ptr, ptr %10, align 8, !tbaa !13
  %30 = getelementptr inbounds nuw %struct.cab, ptr %29, i32 0, i32 13
  store i8 1, ptr %30, align 2, !tbaa !65
  store i32 0, ptr %5, align 4
  store i32 1, ptr %12, align 4
  br label %122

31:                                               ; preds = %4
  %32 = load ptr, ptr %6, align 8, !tbaa !9
  %33 = call ptr @cab_read_ahead_cfdata(ptr noundef %32, ptr noundef %11)
  %34 = load ptr, ptr %7, align 8, !tbaa !95
  store ptr %33, ptr %34, align 8, !tbaa !95
  %35 = load i64, ptr %11, align 8, !tbaa !35
  %36 = icmp sle i64 %35, 0
  br i1 %36, label %37, label %57

37:                                               ; preds = %31
  %38 = load ptr, ptr %7, align 8, !tbaa !95
  store ptr null, ptr %38, align 8, !tbaa !95
  %39 = load ptr, ptr %8, align 8, !tbaa !96
  store i64 0, ptr %39, align 8, !tbaa !35
  %40 = load ptr, ptr %9, align 8, !tbaa !96
  store i64 0, ptr %40, align 8, !tbaa !35
  %41 = load i64, ptr %11, align 8, !tbaa !35
  %42 = icmp eq i64 %41, 0
  br i1 %42, label %43, label %54

43:                                               ; preds = %37
  %44 = load ptr, ptr %10, align 8, !tbaa !13
  %45 = getelementptr inbounds nuw %struct.cab, ptr %44, i32 0, i32 7
  %46 = load ptr, ptr %45, align 8, !tbaa !77
  %47 = getelementptr inbounds nuw %struct.cfdata, ptr %46, i32 0, i32 3
  %48 = load i16, ptr %47, align 8, !tbaa !156
  %49 = zext i16 %48 to i32
  %50 = icmp eq i32 %49, 0
  br i1 %50, label %51, label %54

51:                                               ; preds = %43
  %52 = load ptr, ptr %6, align 8, !tbaa !9
  %53 = getelementptr inbounds nuw %struct.archive_read, ptr %52, i32 0, i32 0
  call void (ptr, i32, ptr, ...) @archive_set_error(ptr noundef %53, i32 noundef 84, ptr noundef @.str.24)
  store i32 -30, ptr %5, align 4
  store i32 1, ptr %12, align 4
  br label %122

54:                                               ; preds = %43, %37
  %55 = load i64, ptr %11, align 8, !tbaa !35
  %56 = trunc i64 %55 to i32
  store i32 %56, ptr %5, align 4
  store i32 1, ptr %12, align 4
  br label %122

57:                                               ; preds = %31
  %58 = load i64, ptr %11, align 8, !tbaa !35
  %59 = load ptr, ptr %10, align 8, !tbaa !13
  %60 = getelementptr inbounds nuw %struct.cab, ptr %59, i32 0, i32 1
  %61 = load i64, ptr %60, align 8, !tbaa !87
  %62 = icmp sgt i64 %58, %61
  br i1 %62, label %63, label %67

63:                                               ; preds = %57
  %64 = load ptr, ptr %10, align 8, !tbaa !13
  %65 = getelementptr inbounds nuw %struct.cab, ptr %64, i32 0, i32 1
  %66 = load i64, ptr %65, align 8, !tbaa !87
  store i64 %66, ptr %11, align 8, !tbaa !35
  br label %67

67:                                               ; preds = %63, %57
  %68 = load i64, ptr %11, align 8, !tbaa !35
  %69 = load ptr, ptr %8, align 8, !tbaa !96
  store i64 %68, ptr %69, align 8, !tbaa !35
  %70 = load ptr, ptr %10, align 8, !tbaa !13
  %71 = getelementptr inbounds nuw %struct.cab, ptr %70, i32 0, i32 0
  %72 = load i64, ptr %71, align 8, !tbaa !88
  %73 = load ptr, ptr %9, align 8, !tbaa !96
  store i64 %72, ptr %73, align 8, !tbaa !35
  %74 = load i64, ptr %11, align 8, !tbaa !35
  %75 = load ptr, ptr %10, align 8, !tbaa !13
  %76 = getelementptr inbounds nuw %struct.cab, ptr %75, i32 0, i32 0
  %77 = load i64, ptr %76, align 8, !tbaa !88
  %78 = add nsw i64 %77, %74
  store i64 %78, ptr %76, align 8, !tbaa !88
  %79 = load i64, ptr %11, align 8, !tbaa !35
  %80 = load ptr, ptr %10, align 8, !tbaa !13
  %81 = getelementptr inbounds nuw %struct.cab, ptr %80, i32 0, i32 1
  %82 = load i64, ptr %81, align 8, !tbaa !87
  %83 = sub nsw i64 %82, %79
  store i64 %83, ptr %81, align 8, !tbaa !87
  %84 = load ptr, ptr %10, align 8, !tbaa !13
  %85 = getelementptr inbounds nuw %struct.cab, ptr %84, i32 0, i32 1
  %86 = load i64, ptr %85, align 8, !tbaa !87
  %87 = icmp eq i64 %86, 0
  br i1 %87, label %88, label %91

88:                                               ; preds = %67
  %89 = load ptr, ptr %10, align 8, !tbaa !13
  %90 = getelementptr inbounds nuw %struct.cab, ptr %89, i32 0, i32 13
  store i8 1, ptr %90, align 2, !tbaa !65
  br label %91

91:                                               ; preds = %88, %67
  %92 = load i64, ptr %11, align 8, !tbaa !35
  %93 = load ptr, ptr %10, align 8, !tbaa !13
  %94 = getelementptr inbounds nuw %struct.cab, ptr %93, i32 0, i32 2
  store i64 %92, ptr %94, align 8, !tbaa !69
  %95 = load ptr, ptr %10, align 8, !tbaa !13
  %96 = getelementptr inbounds nuw %struct.cab, ptr %95, i32 0, i32 5
  %97 = load ptr, ptr %96, align 8, !tbaa !71
  %98 = getelementptr inbounds nuw %struct.cffolder, ptr %97, i32 0, i32 2
  %99 = load i16, ptr %98, align 2, !tbaa !100
  %100 = zext i16 %99 to i32
  %101 = icmp eq i32 %100, 0
  br i1 %101, label %102, label %121

102:                                              ; preds = %91
  %103 = load ptr, ptr %10, align 8, !tbaa !13
  %104 = getelementptr inbounds nuw %struct.cab, ptr %103, i32 0, i32 7
  %105 = load ptr, ptr %104, align 8, !tbaa !77
  %106 = getelementptr inbounds nuw %struct.cfdata, ptr %105, i32 0, i32 7
  %107 = load i64, ptr %106, align 8, !tbaa !101
  %108 = load ptr, ptr %10, align 8, !tbaa !13
  %109 = getelementptr inbounds nuw %struct.cab, ptr %108, i32 0, i32 2
  %110 = load i64, ptr %109, align 8, !tbaa !69
  %111 = icmp sgt i64 %107, %110
  br i1 %111, label %112, label %120

112:                                              ; preds = %102
  %113 = load ptr, ptr %10, align 8, !tbaa !13
  %114 = getelementptr inbounds nuw %struct.cab, ptr %113, i32 0, i32 2
  %115 = load i64, ptr %114, align 8, !tbaa !69
  %116 = load ptr, ptr %10, align 8, !tbaa !13
  %117 = getelementptr inbounds nuw %struct.cab, ptr %116, i32 0, i32 7
  %118 = load ptr, ptr %117, align 8, !tbaa !77
  %119 = getelementptr inbounds nuw %struct.cfdata, ptr %118, i32 0, i32 7
  store i64 %115, ptr %119, align 8, !tbaa !101
  br label %120

120:                                              ; preds = %112, %102
  br label %121

121:                                              ; preds = %120, %91
  store i32 0, ptr %5, align 4
  store i32 1, ptr %12, align 4
  br label %122

122:                                              ; preds = %121, %54, %51, %22
  call void @llvm.lifetime.end.p0(i64 8, ptr %11) #11
  call void @llvm.lifetime.end.p0(i64 8, ptr %10) #11
  %123 = load i32, ptr %5, align 4
  ret i32 %123
}

; Function Attrs: nounwind uwtable
define internal i32 @archive_read_format_cab_read_data(ptr noundef %0, ptr noundef %1, ptr noundef %2, ptr noundef %3) #0 {
  %5 = alloca i32, align 4
  %6 = alloca ptr, align 8
  %7 = alloca ptr, align 8
  %8 = alloca ptr, align 8
  %9 = alloca ptr, align 8
  %10 = alloca ptr, align 8
  %11 = alloca i32, align 4
  %12 = alloca i32, align 4
  store ptr %0, ptr %6, align 8, !tbaa !9
  store ptr %1, ptr %7, align 8, !tbaa !95
  store ptr %2, ptr %8, align 8, !tbaa !96
  store ptr %3, ptr %9, align 8, !tbaa !96
  call void @llvm.lifetime.start.p0(i64 8, ptr %10) #11
  %13 = load ptr, ptr %6, align 8, !tbaa !9
  %14 = getelementptr inbounds nuw %struct.archive_read, ptr %13, i32 0, i32 13
  %15 = load ptr, ptr %14, align 8, !tbaa !39
  %16 = getelementptr inbounds nuw %struct.archive_format_descriptor, ptr %15, i32 0, i32 0
  %17 = load ptr, ptr %16, align 8, !tbaa !53
  store ptr %17, ptr %10, align 8, !tbaa !13
  call void @llvm.lifetime.start.p0(i64 4, ptr %11) #11
  %18 = load ptr, ptr %10, align 8, !tbaa !13
  %19 = getelementptr inbounds nuw %struct.cab, ptr %18, i32 0, i32 6
  %20 = load ptr, ptr %19, align 8, !tbaa !70
  %21 = getelementptr inbounds nuw %struct.cffile, ptr %20, i32 0, i32 3
  %22 = load i16, ptr %21, align 8, !tbaa !73
  %23 = zext i16 %22 to i32
  switch i32 %23, label %32 [
    i32 65533, label %24
    i32 65534, label %24
    i32 65535, label %24
  ]

24:                                               ; preds = %4, %4, %4
  %25 = load ptr, ptr %7, align 8, !tbaa !95
  store ptr null, ptr %25, align 8, !tbaa !95
  %26 = load ptr, ptr %8, align 8, !tbaa !96
  store i64 0, ptr %26, align 8, !tbaa !35
  %27 = load ptr, ptr %9, align 8, !tbaa !96
  store i64 0, ptr %27, align 8, !tbaa !35
  %28 = load ptr, ptr %6, align 8, !tbaa !9
  %29 = getelementptr inbounds nuw %struct.archive_read, ptr %28, i32 0, i32 0
  call void @archive_clear_error(ptr noundef %29)
  %30 = load ptr, ptr %6, align 8, !tbaa !9
  %31 = getelementptr inbounds nuw %struct.archive_read, ptr %30, i32 0, i32 0
  call void (ptr, i32, ptr, ...) @archive_set_error(ptr noundef %31, i32 noundef 84, ptr noundef @.str.22)
  store i32 -25, ptr %5, align 4
  store i32 1, ptr %12, align 4
  br label %123

32:                                               ; preds = %4
  br label %33

33:                                               ; preds = %32
  %34 = load ptr, ptr %10, align 8, !tbaa !13
  %35 = getelementptr inbounds nuw %struct.cab, ptr %34, i32 0, i32 15
  %36 = load i8, ptr %35, align 4, !tbaa !98
  %37 = sext i8 %36 to i32
  %38 = icmp eq i32 %37, 0
  br i1 %38, label %39, label %71

39:                                               ; preds = %33
  %40 = load ptr, ptr %10, align 8, !tbaa !13
  %41 = getelementptr inbounds nuw %struct.cab, ptr %40, i32 0, i32 16
  %42 = load i64, ptr %41, align 8, !tbaa !99
  %43 = icmp ne i64 %42, 0
  br i1 %43, label %44, label %68

44:                                               ; preds = %39
  %45 = load ptr, ptr %10, align 8, !tbaa !13
  %46 = getelementptr inbounds nuw %struct.cab, ptr %45, i32 0, i32 7
  %47 = load ptr, ptr %46, align 8, !tbaa !77
  %48 = icmp eq ptr %47, null
  br i1 %48, label %49, label %57

49:                                               ; preds = %44
  %50 = load ptr, ptr %6, align 8, !tbaa !9
  %51 = call i32 @cab_next_cfdata(ptr noundef %50)
  store i32 %51, ptr %11, align 4, !tbaa !11
  %52 = load i32, ptr %11, align 4, !tbaa !11
  %53 = icmp slt i32 %52, 0
  br i1 %53, label %54, label %56

54:                                               ; preds = %49
  %55 = load i32, ptr %11, align 4, !tbaa !11
  store i32 %55, ptr %5, align 4
  store i32 1, ptr %12, align 4
  br label %123

56:                                               ; preds = %49
  br label %57

57:                                               ; preds = %56, %44
  %58 = load ptr, ptr %6, align 8, !tbaa !9
  %59 = load ptr, ptr %10, align 8, !tbaa !13
  %60 = getelementptr inbounds nuw %struct.cab, ptr %59, i32 0, i32 16
  %61 = load i64, ptr %60, align 8, !tbaa !99
  %62 = call i64 @cab_consume_cfdata(ptr noundef %58, i64 noundef %61)
  %63 = icmp slt i64 %62, 0
  br i1 %63, label %64, label %65

64:                                               ; preds = %57
  store i32 -30, ptr %5, align 4
  store i32 1, ptr %12, align 4
  br label %123

65:                                               ; preds = %57
  %66 = load ptr, ptr %10, align 8, !tbaa !13
  %67 = getelementptr inbounds nuw %struct.cab, ptr %66, i32 0, i32 16
  store i64 0, ptr %67, align 8, !tbaa !99
  br label %68

68:                                               ; preds = %65, %39
  %69 = load ptr, ptr %10, align 8, !tbaa !13
  %70 = getelementptr inbounds nuw %struct.cab, ptr %69, i32 0, i32 15
  store i8 1, ptr %70, align 4, !tbaa !98
  br label %71

71:                                               ; preds = %68, %33
  %72 = load ptr, ptr %10, align 8, !tbaa !13
  %73 = getelementptr inbounds nuw %struct.cab, ptr %72, i32 0, i32 2
  %74 = load i64, ptr %73, align 8, !tbaa !69
  %75 = icmp ne i64 %74, 0
  br i1 %75, label %76, label %90

76:                                               ; preds = %71
  %77 = load ptr, ptr %6, align 8, !tbaa !9
  %78 = load ptr, ptr %10, align 8, !tbaa !13
  %79 = getelementptr inbounds nuw %struct.cab, ptr %78, i32 0, i32 2
  %80 = load i64, ptr %79, align 8, !tbaa !69
  %81 = call i64 @cab_consume_cfdata(ptr noundef %77, i64 noundef %80)
  %82 = trunc i64 %81 to i32
  store i32 %82, ptr %11, align 4, !tbaa !11
  %83 = load ptr, ptr %10, align 8, !tbaa !13
  %84 = getelementptr inbounds nuw %struct.cab, ptr %83, i32 0, i32 2
  store i64 0, ptr %84, align 8, !tbaa !69
  %85 = load i32, ptr %11, align 4, !tbaa !11
  %86 = icmp slt i32 %85, 0
  br i1 %86, label %87, label %89

87:                                               ; preds = %76
  %88 = load i32, ptr %11, align 4, !tbaa !11
  store i32 %88, ptr %5, align 4
  store i32 1, ptr %12, align 4
  br label %123

89:                                               ; preds = %76
  br label %90

90:                                               ; preds = %89, %71
  %91 = load ptr, ptr %10, align 8, !tbaa !13
  %92 = getelementptr inbounds nuw %struct.cab, ptr %91, i32 0, i32 12
  %93 = load i8, ptr %92, align 1, !tbaa !62
  %94 = sext i8 %93 to i32
  %95 = icmp ne i32 %94, 0
  br i1 %95, label %102, label %96

96:                                               ; preds = %90
  %97 = load ptr, ptr %10, align 8, !tbaa !13
  %98 = getelementptr inbounds nuw %struct.cab, ptr %97, i32 0, i32 13
  %99 = load i8, ptr %98, align 2, !tbaa !65
  %100 = sext i8 %99 to i32
  %101 = icmp ne i32 %100, 0
  br i1 %101, label %102, label %117

102:                                              ; preds = %96, %90
  %103 = load ptr, ptr %10, align 8, !tbaa !13
  %104 = getelementptr inbounds nuw %struct.cab, ptr %103, i32 0, i32 14
  %105 = load i8, ptr %104, align 1, !tbaa !66
  %106 = icmp ne i8 %105, 0
  br i1 %106, label %110, label %107

107:                                              ; preds = %102
  %108 = load ptr, ptr %10, align 8, !tbaa !13
  %109 = getelementptr inbounds nuw %struct.cab, ptr %108, i32 0, i32 14
  store i8 1, ptr %109, align 1, !tbaa !66
  br label %110

110:                                              ; preds = %107, %102
  %111 = load ptr, ptr %10, align 8, !tbaa !13
  %112 = getelementptr inbounds nuw %struct.cab, ptr %111, i32 0, i32 0
  %113 = load i64, ptr %112, align 8, !tbaa !88
  %114 = load ptr, ptr %9, align 8, !tbaa !96
  store i64 %113, ptr %114, align 8, !tbaa !35
  %115 = load ptr, ptr %8, align 8, !tbaa !96
  store i64 0, ptr %115, align 8, !tbaa !35
  %116 = load ptr, ptr %7, align 8, !tbaa !95
  store ptr null, ptr %116, align 8, !tbaa !95
  store i32 1, ptr %5, align 4
  store i32 1, ptr %12, align 4
  br label %123

117:                                              ; preds = %96
  %118 = load ptr, ptr %6, align 8, !tbaa !9
  %119 = load ptr, ptr %7, align 8, !tbaa !95
  %120 = load ptr, ptr %8, align 8, !tbaa !96
  %121 = load ptr, ptr %9, align 8, !tbaa !96
  %122 = call i32 @cab_read_data(ptr noundef %118, ptr noundef %119, ptr noundef %120, ptr noundef %121)
  store i32 %122, ptr %5, align 4
  store i32 1, ptr %12, align 4
  br label %123

123:                                              ; preds = %117, %110, %87, %64, %54, %24
  call void @llvm.lifetime.end.p0(i64 4, ptr %11) #11
  call void @llvm.lifetime.end.p0(i64 8, ptr %10) #11
  %124 = load i32, ptr %5, align 4
  ret i32 %124
}