; Function Attrs: nounwind uwtable
define internal i32 @archive_read_format_cab_read_data(ptr noundef %0, ptr noundef writeonly captures(none) %1, ptr noundef writeonly captures(none) %2, ptr noundef writeonly captures(none) %3) #0 {
  %5 = alloca i64, align 8
  %6 = getelementptr inbounds nuw i8, ptr %0, i64 2072
  %7 = load ptr, ptr %6, align 8, !tbaa !11
  %8 = load ptr, ptr %7, align 8, !tbaa !29
  %9 = getelementptr inbounds nuw i8, ptr %8, i64 48
  %10 = load ptr, ptr %9, align 8, !tbaa !85
  %11 = getelementptr inbounds nuw i8, ptr %10, i64 16
  %12 = load i16, ptr %11, align 8, !tbaa !76
  %switch = icmp ugt i16 %12, -4
  br i1 %switch, label %13, label %14

13:                                               ; preds = %4
  store ptr null, ptr %1, align 8, !tbaa !101
  store i64 0, ptr %2, align 8, !tbaa !7
  store i64 0, ptr %3, align 8, !tbaa !7
  tail call void @archive_clear_error(ptr noundef nonnull %0) #18
  tail call void (ptr, i32, ptr, ...) @archive_set_error(ptr noundef nonnull %0, i32 noundef 84, ptr noundef nonnull @.str.22) #18
  br label %100

14:                                               ; preds = %4
  %15 = getelementptr inbounds nuw i8, ptr %8, i64 148
  %16 = load i8, ptr %15, align 4, !tbaa !102
  %17 = icmp eq i8 %16, 0
  br i1 %17, label %18, label %34

18:                                               ; preds = %14
  %19 = getelementptr inbounds nuw i8, ptr %8, i64 152
  %20 = load i64, ptr %19, align 8, !tbaa !103
  %.not = icmp eq i64 %20, 0
  br i1 %.not, label %33, label %21

21:                                               ; preds = %18
  %22 = getelementptr inbounds nuw i8, ptr %8, i64 56
  %23 = load ptr, ptr %22, align 8, !tbaa !87
  %24 = icmp eq ptr %23, null
  br i1 %24, label %25, label %28

25:                                               ; preds = %21
  %26 = tail call fastcc i32 @cab_next_cfdata(ptr noundef nonnull %0)
  %27 = icmp slt i32 %26, 0
  br i1 %27, label %100, label %._crit_edge

._crit_edge:                                      ; preds = %25
  %.pre = load i64, ptr %19, align 8, !tbaa !103
  br label %28

28:                                               ; preds = %._crit_edge, %21
  %29 = phi i64 [ %.pre, %._crit_edge ], [ %20, %21 ]
  %30 = tail call fastcc i64 @cab_consume_cfdata(ptr noundef nonnull %0, i64 noundef %29)
  %31 = icmp slt i64 %30, 0
  br i1 %31, label %100, label %32

32:                                               ; preds = %28
  store i64 0, ptr %19, align 8, !tbaa !103
  br label %33

33:                                               ; preds = %32, %18
  store i8 1, ptr %15, align 4, !tbaa !102
  br label %34

34:                                               ; preds = %33, %14
  %35 = getelementptr inbounds nuw i8, ptr %8, i64 16
  %36 = load i64, ptr %35, align 8, !tbaa !104
  %.not38 = icmp eq i64 %36, 0
  br i1 %.not38, label %41, label %37

37:                                               ; preds = %34
  %38 = tail call fastcc i64 @cab_consume_cfdata(ptr noundef nonnull %0, i64 noundef %36)
  %39 = trunc i64 %38 to i32
  store i64 0, ptr %35, align 8, !tbaa !104
  %40 = icmp slt i32 %39, 0
  br i1 %40, label %100, label %41

41:                                               ; preds = %37, %34
  %42 = getelementptr inbounds nuw i8, ptr %8, i64 145
  %43 = load i8, ptr %42, align 1, !tbaa !82
  %.not39 = icmp eq i8 %43, 0
  br i1 %.not39, label %44, label %47

44:                                               ; preds = %41
  %45 = getelementptr inbounds nuw i8, ptr %8, i64 146
  %46 = load i8, ptr %45, align 2, !tbaa !83
  %.not40 = icmp eq i8 %46, 0
  br i1 %.not40, label %53, label %47

47:                                               ; preds = %44, %41
  %48 = getelementptr inbounds nuw i8, ptr %8, i64 147
  %49 = load i8, ptr %48, align 1, !tbaa !84
  %.not41 = icmp eq i8 %49, 0
  br i1 %.not41, label %50, label %51

50:                                               ; preds = %47
  store i8 1, ptr %48, align 1, !tbaa !84
  br label %51

51:                                               ; preds = %50, %47
  %52 = load i64, ptr %8, align 8, !tbaa !100
  store i64 %52, ptr %3, align 8, !tbaa !7
  store i64 0, ptr %2, align 8, !tbaa !7
  store ptr null, ptr %1, align 8, !tbaa !101
  br label %100

53:                                               ; preds = %44
  %54 = load ptr, ptr %6, align 8, !tbaa !11
  %55 = load ptr, ptr %54, align 8, !tbaa !29
  call void @llvm.lifetime.start.p0(i64 8, ptr nonnull %5) #18
  %56 = getelementptr inbounds nuw i8, ptr %55, i64 8
  %57 = load i64, ptr %56, align 8, !tbaa !99
  %58 = icmp eq i64 %57, 0
  br i1 %58, label %59, label %62

59:                                               ; preds = %53
  store ptr null, ptr %1, align 8, !tbaa !101
  store i64 0, ptr %2, align 8, !tbaa !7
  %60 = load i64, ptr %55, align 8, !tbaa !100
  store i64 %60, ptr %3, align 8, !tbaa !7
  %61 = getelementptr inbounds nuw i8, ptr %55, i64 146
  store i8 1, ptr %61, align 2, !tbaa !83
  br label %cab_read_data.exit

62:                                               ; preds = %53
  %63 = call fastcc ptr @cab_read_ahead_cfdata(ptr noundef nonnull %0, ptr noundef %5)
  store ptr %63, ptr %1, align 8, !tbaa !101
  %64 = load i64, ptr %5, align 8, !tbaa !7
  %65 = icmp slt i64 %64, 1
  br i1 %65, label %66, label %77

66:                                               ; preds = %62
  store ptr null, ptr %1, align 8, !tbaa !101
  store i64 0, ptr %2, align 8, !tbaa !7
  store i64 0, ptr %3, align 8, !tbaa !7
  %67 = icmp eq i64 %64, 0
  br i1 %67, label %68, label %75

68:                                               ; preds = %66
  %69 = getelementptr inbounds nuw i8, ptr %55, i64 56
  %70 = load ptr, ptr %69, align 8, !tbaa !87
  %71 = getelementptr inbounds nuw i8, ptr %70, i64 8
  %72 = load i16, ptr %71, align 8, !tbaa !105
  %73 = icmp eq i16 %72, 0
  br i1 %73, label %74, label %75

74:                                               ; preds = %68
  call void (ptr, i32, ptr, ...) @archive_set_error(ptr noundef nonnull %0, i32 noundef 84, ptr noundef nonnull @.str.24) #18
  br label %cab_read_data.exit

75:                                               ; preds = %68, %66
  %76 = trunc i64 %64 to i32
  br label %cab_read_data.exit

77:                                               ; preds = %62
  %78 = load i64, ptr %56, align 8, !tbaa !99
  %spec.select.i = call i64 @llvm.smin.i64(i64 %64, i64 %78)
  store i64 %spec.select.i, ptr %2, align 8, !tbaa !7
  %79 = load i64, ptr %55, align 8, !tbaa !100
  store i64 %79, ptr %3, align 8, !tbaa !7
  %80 = add nsw i64 %79, %spec.select.i
  store i64 %80, ptr %55, align 8, !tbaa !100
  %81 = load i64, ptr %56, align 8, !tbaa !99
  %82 = sub nsw i64 %81, %spec.select.i
  store i64 %82, ptr %56, align 8, !tbaa !99
  %83 = icmp eq i64 %81, %spec.select.i
  br i1 %83, label %84, label %86

84:                                               ; preds = %77
  %85 = getelementptr inbounds nuw i8, ptr %55, i64 146
  store i8 1, ptr %85, align 2, !tbaa !83
  br label %86

86:                                               ; preds = %84, %77
  %87 = getelementptr inbounds nuw i8, ptr %55, i64 16
  store i64 %spec.select.i, ptr %87, align 8, !tbaa !104
  %88 = getelementptr inbounds nuw i8, ptr %55, i64 40
  %89 = load ptr, ptr %88, align 8, !tbaa !86
  %90 = getelementptr inbounds nuw i8, ptr %89, i64 6
  %91 = load i16, ptr %90, align 2, !tbaa !66
  %92 = icmp eq i16 %91, 0
  br i1 %92, label %93, label %cab_read_data.exit

93:                                               ; preds = %86
  %94 = getelementptr inbounds nuw i8, ptr %55, i64 56
  %95 = load ptr, ptr %94, align 8, !tbaa !87
  %96 = getelementptr inbounds nuw i8, ptr %95, i64 16
  %97 = load i64, ptr %96, align 8, !tbaa !106
  %98 = icmp sgt i64 %97, %spec.select.i
  br i1 %98, label %99, label %cab_read_data.exit

99:                                               ; preds = %93
  store i64 %spec.select.i, ptr %96, align 8, !tbaa !106
  br label %cab_read_data.exit

cab_read_data.exit:                               ; preds = %59, %74, %75, %86, %93, %99
  %.0.i = phi i32 [ 0, %59 ], [ -30, %74 ], [ %76, %75 ], [ 0, %93 ], [ 0, %99 ], [ 0, %86 ]
  call void @llvm.lifetime.end.p0(i64 8, ptr nonnull %5) #18
  br label %100

100:                                              ; preds = %37, %28, %25, %cab_read_data.exit, %51, %13
  %.0 = phi i32 [ 1, %51 ], [ %.0.i, %cab_read_data.exit ], [ -25, %13 ], [ %26, %25 ], [ -30, %28 ], [ %39, %37 ]
  ret i32 %.0
}